; ModuleID = '57/3111.c'
source_filename = "57/3111.c"
target datalayout = "e-m:e-p270:32:32-p271:32:32-p272:64:64-i64:64-f80:128-n8:16:32:64-S128"
target triple = "x86_64-pc-linux-gnu"

@__const.main.sz = private unnamed_addr constant [4 x i8] c"ing\00", align 1
@.str = private unnamed_addr constant [3 x i8] c"%d\00", align 1
@.str.1 = private unnamed_addr constant [3 x i8] c"%s\00", align 1
@.str.2 = private unnamed_addr constant [4 x i8] c"%s\0A\00", align 1

; Function Attrs: noinline nounwind uwtable
define dso_local i32 @main() #0 {
  %1 = alloca i32, align 4
  %2 = alloca i32, align 4
  %3 = alloca i32, align 4
  %4 = alloca i32, align 4
  %5 = alloca i32, align 4
  %6 = alloca i32, align 4
  %7 = alloca i32, align 4
  %8 = alloca [50 x i8], align 16
  %9 = alloca [50 x i8], align 16
  %10 = alloca [50 x i8], align 16
  %11 = alloca [4 x i8], align 1
  %12 = alloca i32, align 4
  %13 = alloca i32, align 4
  store i32 0, i32* %1, align 4
  %14 = bitcast [4 x i8]* %11 to i8*
  call void @llvm.memcpy.p0i8.p0i8.i64(i8* align 1 %14, i8* align 1 getelementptr inbounds ([4 x i8], [4 x i8]* @__const.main.sz, i32 0, i32 0), i64 4, i1 false)
  %15 = call i32 (i8*, ...) @__isoc99_scanf(i8* getelementptr inbounds ([3 x i8], [3 x i8]* @.str, i64 0, i64 0), i32* %2)
  store i32 0, i32* %3, align 4
  br label %16

16:                                               ; preds = %105, %0
  %17 = load i32, i32* %3, align 4
  %18 = load i32, i32* %2, align 4
  %19 = icmp slt i32 %17, %18
  br i1 %19, label %20, label %108

20:                                               ; preds = %16
  %21 = getelementptr inbounds [50 x i8], [50 x i8]* %8, i64 0, i64 0
  %22 = call i32 (i8*, ...) @__isoc99_scanf(i8* getelementptr inbounds ([3 x i8], [3 x i8]* @.str.1, i64 0, i64 0), i8* %21)
  %23 = getelementptr inbounds [50 x i8], [50 x i8]* %8, i64 0, i64 0
  %24 = call i64 @strlen(i8* %23) #4
  %25 = trunc i64 %24 to i32
  store i32 %25, i32* %6, align 4
  store i32 0, i32* %12, align 4
  store i32 0, i32* %13, align 4
  %26 = load i32, i32* %6, align 4
  %27 = sub nsw i32 %26, 3
  store i32 %27, i32* %7, align 4
  br label %28

28:                                               ; preds = %42, %20
  %29 = load i32, i32* %7, align 4
  %30 = load i32, i32* %6, align 4
  %31 = icmp slt i32 %29, %30
  br i1 %31, label %32, label %45

32:                                               ; preds = %28
  %33 = load i32, i32* %7, align 4
  %34 = sext i32 %33 to i64
  %35 = getelementptr inbounds [50 x i8], [50 x i8]* %8, i64 0, i64 %34
  %36 = load i8, i8* %35, align 1
  %37 = load i32, i32* %12, align 4
  %38 = sext i32 %37 to i64
  %39 = getelementptr inbounds [50 x i8], [50 x i8]* %9, i64 0, i64 %38
  store i8 %36, i8* %39, align 1
  %40 = load i32, i32* %12, align 4
  %41 = add nsw i32 %40, 1
  store i32 %41, i32* %12, align 4
  br label %42

42:                                               ; preds = %32
  %43 = load i32, i32* %7, align 4
  %44 = add nsw i32 %43, 1
  store i32 %44, i32* %7, align 4
  br label %28

45:                                               ; preds = %28
  %46 = load i32, i32* %12, align 4
  %47 = sext i32 %46 to i64
  %48 = getelementptr inbounds [50 x i8], [50 x i8]* %9, i64 0, i64 %47
  store i8 0, i8* %48, align 1
  %49 = getelementptr inbounds [50 x i8], [50 x i8]* %9, i64 0, i64 0
  %50 = getelementptr inbounds [4 x i8], [4 x i8]* %11, i64 0, i64 0
  %51 = call i32 @strcmp(i8* %49, i8* %50) #4
  store i32 %51, i32* %5, align 4
  %52 = load i32, i32* %5, align 4
  %53 = icmp eq i32 %52, 0
  br i1 %53, label %54, label %79

54:                                               ; preds = %45
  store i32 0, i32* %4, align 4
  br label %55

55:                                               ; preds = %70, %54
  %56 = load i32, i32* %4, align 4
  %57 = load i32, i32* %6, align 4
  %58 = sub nsw i32 %57, 3
  %59 = icmp slt i32 %56, %58
  br i1 %59, label %60, label %73

60:                                               ; preds = %55
  %61 = load i32, i32* %4, align 4
  %62 = sext i32 %61 to i64
  %63 = getelementptr inbounds [50 x i8], [50 x i8]* %8, i64 0, i64 %62
  %64 = load i8, i8* %63, align 1
  %65 = load i32, i32* %13, align 4
  %66 = sext i32 %65 to i64
  %67 = getelementptr inbounds [50 x i8], [50 x i8]* %10, i64 0, i64 %66
  store i8 %64, i8* %67, align 1
  %68 = load i32, i32* %13, align 4
  %69 = add nsw i32 %68, 1
  store i32 %69, i32* %13, align 4
  br label %70

70:                                               ; preds = %60
  %71 = load i32, i32* %4, align 4
  %72 = add nsw i32 %71, 1
  store i32 %72, i32* %4, align 4
  br label %55

73:                                               ; preds = %55
  %74 = load i32, i32* %13, align 4
  %75 = sext i32 %74 to i64
  %76 = getelementptr inbounds [50 x i8], [50 x i8]* %10, i64 0, i64 %75
  store i8 0, i8* %76, align 1
  %77 = getelementptr inbounds [50 x i8], [50 x i8]* %10, i64 0, i64 0
  %78 = call i32 (i8*, ...) @printf(i8* getelementptr inbounds ([4 x i8], [4 x i8]* @.str.2, i64 0, i64 0), i8* %77)
  br label %104

79:                                               ; preds = %45
  store i32 0, i32* %4, align 4
  br label %80

80:                                               ; preds = %95, %79
  %81 = load i32, i32* %4, align 4
  %82 = load i32, i32* %6, align 4
  %83 = sub nsw i32 %82, 2
  %84 = icmp slt i32 %81, %83
  br i1 %84, label %85, label %98

85:                                               ; preds = %80
  %86 = load i32, i32* %4, align 4
  %87 = sext i32 %86 to i64
  %88 = getelementptr inbounds [50 x i8], [50 x i8]* %8, i64 0, i64 %87
  %89 = load i8, i8* %88, align 1
  %90 = load i32, i32* %13, align 4
  %91 = sext i32 %90 to i64
  %92 = getelementptr inbounds [50 x i8], [50 x i8]* %10, i64 0, i64 %91
  store i8 %89, i8* %92, align 1
  %93 = load i32, i32* %13, align 4
  %94 = add nsw i32 %93, 1
  store i32 %94, i32* %13, align 4
  br label %95

95:                                               ; preds = %85
  %96 = load i32, i32* %4, align 4
  %97 = add nsw i32 %96, 1
  store i32 %97, i32* %4, align 4
  br label %80

98:                                               ; preds = %80
  %99 = load i32, i32* %13, align 4
  %100 = sext i32 %99 to i64
  %101 = getelementptr inbounds [50 x i8], [50 x i8]* %10, i64 0, i64 %100
  store i8 0, i8* %101, align 1
  %102 = getelementptr inbounds [50 x i8], [50 x i8]* %10, i64 0, i64 0
  %103 = call i32 (i8*, ...) @printf(i8* getelementptr inbounds ([4 x i8], [4 x i8]* @.str.2, i64 0, i64 0), i8* %102)
  br label %104

104:                                              ; preds = %98, %73
  br label %105

105:                                              ; preds = %104
  %106 = load i32, i32* %3, align 4
  %107 = add nsw i32 %106, 1
  store i32 %107, i32* %3, align 4
  br label %16

108:                                              ; preds = %16
  ret i32 0
}

; Function Attrs: argmemonly nounwind willreturn
declare void @llvm.memcpy.p0i8.p0i8.i64(i8* noalias nocapture writeonly, i8* noalias nocapture readonly, i64, i1 immarg) #1

declare dso_local i32 @__isoc99_scanf(i8*, ...) #2

; Function Attrs: nounwind readonly
declare dso_local i64 @strlen(i8*) #3

; Function Attrs: nounwind readonly
declare dso_local i32 @strcmp(i8*, i8*) #3

declare dso_local i32 @printf(i8*, ...) #2


!llvm.module.flags = !{!0}
!llvm.ident = !{!1}

!0 = !{i32 1, !"wchar_size", i32 4}
!1 = !{!"clang version 10.0.0-4ubuntu1 "}
